target datalayout = "e-m:e-p270:32:32-p271:32:32-p272:64:64-i64:64-i128:128-f80:128-n8:16:32:64-S128"
target triple = "x86_64-pc-linux-gnu"

%"class.std::__cxx11::basic_string" = type { %"struct.std::__cxx11::basic_string<char>::_Alloc_hider", i64, %union.anon }
%"struct.std::__cxx11::basic_string<char>::_Alloc_hider" = type { ptr }
%union.anon = type { i64, [8 x i8] }
%"struct.std::array.21" = type { [4 x i64] }
%"class.std::allocator" = type { i8 }
%"class.std::shared_ptr" = type { %"class.std::__shared_ptr" }
%"class.std::__shared_ptr" = type { ptr, %"class.std::__shared_count" }
%"class.std::__shared_count" = type { ptr }
%"class.open_spiel::twenty_forty_eight::TwentyFortyEightState" = type { %"class.open_spiel::State.base", ptr, i32, %"class.std::vector.9", i8, i32, i32, i32 }
%"class.open_spiel::State.base" = type <{ ptr, %"class.std::shared_ptr", i32, i32, %"class.std::vector", i32 }>
%"class.std::vector" = type { %"struct.std::_Vector_base" }
%"struct.std::_Vector_base" = type { %"struct.std::_Vector_base<open_spiel::State::PlayerAction, std::allocator<open_spiel::State::PlayerAction>>::_Vector_impl" }
%"struct.std::_Vector_base<open_spiel::State::PlayerAction, std::allocator<open_spiel::State::PlayerAction>>::_Vector_impl" = type { %"struct.std::_Vector_base<open_spiel::State::PlayerAction, std::allocator<open_spiel::State::PlayerAction>>::_Vector_impl_data" }
%"struct.std::_Vector_base<open_spiel::State::PlayerAction, std::allocator<open_spiel::State::PlayerAction>>::_Vector_impl_data" = type { ptr, ptr, ptr }
%"class.std::vector.9" = type { %"struct.std::_Vector_base.10" }
%"struct.std::_Vector_base.10" = type { %"struct.std::_Vector_base<open_spiel::twenty_forty_eight::Tile, std::allocator<open_spiel::twenty_forty_eight::Tile>>::_Vector_impl" }
%"struct.std::_Vector_base<open_spiel::twenty_forty_eight::Tile, std::allocator<open_spiel::twenty_forty_eight::Tile>>::_Vector_impl" = type { %"struct.std::_Vector_base<open_spiel::twenty_forty_eight::Tile, std::allocator<open_spiel::twenty_forty_eight::Tile>>::_Vector_impl_data" }
%"struct.std::_Vector_base<open_spiel::twenty_forty_eight::Tile, std::allocator<open_spiel::twenty_forty_eight::Tile>>::_Vector_impl_data" = type { ptr, ptr, ptr }
%"struct.open_spiel::twenty_forty_eight::Tile" = type <{ i32, i8, [3 x i8] }>
%"struct.open_spiel::twenty_forty_eight::Coordinate" = type { i32, i32 }

@_ZN10open_spiel18twenty_forty_eight12_GLOBAL__N_114kPlayerActionsE = internal constant %"struct.std::array.21" { [4 x i64] [i64 0, i64 1, i64 2, i64 3] }, align 8
@.str.24 = private unnamed_addr constant [23 x i8] c"Unrecognized direction\00", align 1

; Function Attrs: mustprogress nounwind uwtable
define linkonce_odr noundef ptr @_ZNSt14__array_traitsIlLm4EE6_S_ptrERA4_Kl(ptr noundef nonnull align 8 dereferenceable(32) %0) #5 comdat align 2 {
  %2 = alloca ptr, align 8
  store ptr %0, ptr %2, align 8
  %3 = load ptr, ptr %2, align 8
  %4 = getelementptr inbounds [4 x i64], ptr %3, i64 0, i64 0
  ret ptr %4
}

; Function Attrs: mustprogress nounwind uwtable
define internal noundef zeroext i1 @_ZN10open_spiel18twenty_forty_eight12_GLOBAL__N_18InBoundsEii(i32 noundef %0, i32 noundef %1) #5 {
  %3 = alloca i32, align 4
  %4 = alloca i32, align 4
  store i32 %0, ptr %3, align 4
  store i32 %1, ptr %4, align 4
  %5 = load i32, ptr %3, align 4
  %6 = icmp sge i32 %5, 0
  br i1 %6, label %7, label %16

7:                                                ; preds = %2
  %8 = load i32, ptr %3, align 4
  %9 = icmp slt i32 %8, 4
  br i1 %9, label %10, label %16

10:                                               ; preds = %7
  %11 = load i32, ptr %4, align 4
  %12 = icmp sge i32 %11, 0
  br i1 %12, label %13, label %16

13:                                               ; preds = %10
  %14 = load i32, ptr %4, align 4
  %15 = icmp slt i32 %14, 4
  br label %16

16:                                               ; preds = %13, %10, %7, %2
  %17 = phi i1 [ false, %10 ], [ false, %7 ], [ false, %2 ], [ %15, %13 ]
  ret i1 %17
}

; Function Attrs: mustprogress nounwind uwtable
define linkonce_odr void @_ZN10open_spiel18twenty_forty_eight10CoordinateC2Eii(ptr noundef nonnull align 4 dereferenceable(8) %0, i32 noundef %1, i32 noundef %2) unnamed_addr #5 comdat align 2 {
  %4 = alloca ptr, align 8
  %5 = alloca i32, align 4
  %6 = alloca i32, align 4
  store ptr %0, ptr %4, align 8
  store i32 %1, ptr %5, align 4
  store i32 %2, ptr %6, align 4
  %7 = load ptr, ptr %4, align 8
  %8 = getelementptr inbounds nuw %"struct.open_spiel::twenty_forty_eight::Coordinate", ptr %7, i32 0, i32 0
  %9 = load i32, ptr %5, align 4
  store i32 %9, ptr %8, align 4
  %10 = getelementptr inbounds nuw %"struct.open_spiel::twenty_forty_eight::Coordinate", ptr %7, i32 0, i32 1
  %11 = load i32, ptr %6, align 4
  store i32 %11, ptr %10, align 4
  ret void
}

; Function Attrs: mustprogress nounwind uwtable
define linkonce_odr noundef ptr @_ZNKSt5arrayIlLm4EE4dataEv(ptr noundef nonnull align 8 dereferenceable(32) %0) #5 comdat align 2 {
  %2 = alloca ptr, align 8
  store ptr %0, ptr %2, align 8
  %3 = load ptr, ptr %2, align 8
  %4 = getelementptr inbounds nuw %"struct.std::array.21", ptr %3, i32 0, i32 0
  %5 = call noundef ptr @_ZNSt14__array_traitsIlLm4EE6_S_ptrERA4_Kl(ptr noundef nonnull align 8 dereferenceable(32) %4) #3
  ret ptr %5
}

; Function Attrs: mustprogress nounwind uwtable
define linkonce_odr noundef nonnull align 4 dereferenceable(5) ptr @_ZNKSt6vectorIN10open_spiel18twenty_forty_eight4TileESaIS2_EEixEm(ptr noundef nonnull align 8 dereferenceable(24) %0, i64 noundef %1) #5 comdat align 2 {
  %3 = alloca ptr, align 8
  %4 = alloca i64, align 8
  store ptr %0, ptr %3, align 8
  store i64 %1, ptr %4, align 8
  %5 = load ptr, ptr %3, align 8
  %6 = getelementptr inbounds nuw %"struct.std::_Vector_base.10", ptr %5, i32 0, i32 0
  %7 = getelementptr inbounds nuw %"struct.std::_Vector_base<open_spiel::twenty_forty_eight::Tile, std::allocator<open_spiel::twenty_forty_eight::Tile>>::_Vector_impl_data", ptr %6, i32 0, i32 0
  %8 = load ptr, ptr %7, align 8
  %9 = load i64, ptr %4, align 8
  %10 = getelementptr inbounds %"struct.open_spiel::twenty_forty_eight::Tile", ptr %8, i64 %9
  ret ptr %10
}

; Function Attrs: mustprogress uwtable
define noundef i32 @_ZNK10open_spiel18twenty_forty_eight21TwentyFortyEightState14GetCellContentEii(ptr noundef nonnull align 8 dereferenceable(120) %0, i32 noundef %1, i32 noundef %2) #4 align 2 {
  %4 = alloca i32, align 4
  %5 = alloca ptr, align 8
  %6 = alloca i32, align 4
  %7 = alloca i32, align 4
  %8 = alloca %"struct.open_spiel::twenty_forty_eight::Tile", align 4
  store ptr %0, ptr %5, align 8
  store i32 %1, ptr %6, align 4
  store i32 %2, ptr %7, align 4
  %9 = load ptr, ptr %5, align 8
  %10 = load i32, ptr %6, align 4
  %11 = load i32, ptr %7, align 4
  %12 = call noundef zeroext i1 @_ZN10open_spiel18twenty_forty_eight12_GLOBAL__N_18InBoundsEii(i32 noundef %10, i32 noundef %11)
  br i1 %12, label %14, label %13

13:                                               ; preds = %3
  store i32 0, ptr %4, align 4
  br label %21

14:                                               ; preds = %3
  %15 = load i32, ptr %6, align 4
  %16 = load i32, ptr %7, align 4
  %17 = call i64 @_ZNK10open_spiel18twenty_forty_eight21TwentyFortyEightState7BoardAtEii(ptr noundef nonnull align 8 dereferenceable(120) %9, i32 noundef %15, i32 noundef %16)
  %18 = trunc i64 %17 to i40
  store i40 %18, ptr %8, align 4
  %19 = getelementptr inbounds nuw %"struct.open_spiel::twenty_forty_eight::Tile", ptr %8, i32 0, i32 0
  %20 = load i32, ptr %19, align 4
  store i32 %20, ptr %4, align 4
  br label %21

21:                                               ; preds = %14, %13
  %22 = load i32, ptr %4, align 4
  ret i32 %22
}

; Function Attrs: mustprogress uwtable
define linkonce_odr i64 @_ZN10open_spiel18twenty_forty_eight9GetVectorEi(i32 noundef %0) #4 comdat personality ptr @__gxx_personality_v0 {
  %2 = alloca %"struct.open_spiel::twenty_forty_eight::Coordinate", align 4
  %3 = alloca i32, align 4
  %4 = alloca %"class.std::__cxx11::basic_string", align 8
  %5 = alloca %"class.std::allocator", align 1
  %6 = alloca ptr, align 8
  %7 = alloca i32, align 4
  store i32 %0, ptr %3, align 4
  %8 = load i32, ptr %3, align 4
  switch i32 %8, label %13 [
    i32 0, label %9
    i32 1, label %10
    i32 2, label %11
    i32 3, label %12
  ]

9:                                                ; preds = %1
  call void @_ZN10open_spiel18twenty_forty_eight10CoordinateC2Eii(ptr noundef nonnull align 4 dereferenceable(8) %2, i32 noundef -1, i32 noundef 0)
  br label %25

10:                                               ; preds = %1
  call void @_ZN10open_spiel18twenty_forty_eight10CoordinateC2Eii(ptr noundef nonnull align 4 dereferenceable(8) %2, i32 noundef 0, i32 noundef 1)
  br label %25

11:                                               ; preds = %1
  call void @_ZN10open_spiel18twenty_forty_eight10CoordinateC2Eii(ptr noundef nonnull align 4 dereferenceable(8) %2, i32 noundef 1, i32 noundef 0)
  br label %25

12:                                               ; preds = %1
  call void @_ZN10open_spiel18twenty_forty_eight10CoordinateC2Eii(ptr noundef nonnull align 4 dereferenceable(8) %2, i32 noundef 0, i32 noundef -1)
  br label %25

13:                                               ; preds = %1
  call void @_ZNSaIcEC1Ev(ptr noundef nonnull align 1 dereferenceable(1) %5) #3
  invoke void @_ZNSt7__cxx1112basic_stringIcSt11char_traitsIcESaIcEEC2IS3_EEPKcRKS3_(ptr noundef nonnull align 8 dereferenceable(32) %4, ptr noundef @.str.24, ptr noundef nonnull align 1 dereferenceable(1) %5)
          to label %14 unwind label %16

14:                                               ; preds = %13
  invoke void @_ZN10open_spiel15SpielFatalErrorERKNSt7__cxx1112basic_stringIcSt11char_traitsIcESaIcEEE(ptr noundef nonnull align 8 dereferenceable(32) %4) #15
          to label %15 unwind label %20

15:                                               ; preds = %14
  unreachable

16:                                               ; preds = %13
  %17 = landingpad { ptr, i32 }
          cleanup
  %18 = extractvalue { ptr, i32 } %17, 0
  store ptr %18, ptr %6, align 8
  %19 = extractvalue { ptr, i32 } %17, 1
  store i32 %19, ptr %7, align 4
  br label %24

20:                                               ; preds = %14
  %21 = landingpad { ptr, i32 }
          cleanup
  %22 = extractvalue { ptr, i32 } %21, 0
  store ptr %22, ptr %6, align 8
  %23 = extractvalue { ptr, i32 } %21, 1
  store i32 %23, ptr %7, align 4
  call void @_ZNSt7__cxx1112basic_stringIcSt11char_traitsIcESaIcEED1Ev(ptr noundef nonnull align 8 dereferenceable(32) %4) #3
  br label %24

24:                                               ; preds = %20, %16
  call void @_ZNSaIcED1Ev(ptr noundef nonnull align 1 dereferenceable(1) %5) #3
  br label %27

25:                                               ; preds = %12, %11, %10, %9
  %26 = load i64, ptr %2, align 4
  ret i64 %26

27:                                               ; preds = %24
  %28 = load ptr, ptr %6, align 8
  %29 = load i32, ptr %7, align 4
  %30 = insertvalue { ptr, i32 } poison, ptr %28, 0
  %31 = insertvalue { ptr, i32 } %30, i32 %29, 1
  resume { ptr, i32 } %31
}

; Function Attrs: mustprogress nounwind uwtable
define linkonce_odr noundef ptr @_ZNKSt5arrayIlLm4EE3endEv(ptr noundef nonnull align 8 dereferenceable(32) %0) #5 comdat align 2 {
  %2 = alloca ptr, align 8
  store ptr %0, ptr %2, align 8
  %3 = load ptr, ptr %2, align 8
  %4 = call noundef ptr @_ZNKSt5arrayIlLm4EE4dataEv(ptr noundef nonnull align 8 dereferenceable(32) %3) #3
  %5 = getelementptr inbounds i64, ptr %4, i64 4
  ret ptr %5
}

; Function Attrs: mustprogress nounwind uwtable
define linkonce_odr noundef ptr @_ZNKSt5arrayIlLm4EE5beginEv(ptr noundef nonnull align 8 dereferenceable(32) %0) #5 comdat align 2 {
  %2 = alloca ptr, align 8
  store ptr %0, ptr %2, align 8
  %3 = load ptr, ptr %2, align 8
  %4 = call noundef ptr @_ZNKSt5arrayIlLm4EE4dataEv(ptr noundef nonnull align 8 dereferenceable(32) %3) #3
  ret ptr %4
}

; Function Attrs: mustprogress nounwind uwtable
define linkonce_odr i64 @_ZNK10open_spiel18twenty_forty_eight21TwentyFortyEightState7BoardAtEii(ptr noundef nonnull align 8 dereferenceable(120) %0, i32 noundef %1, i32 noundef %2) #5 comdat align 2 {
  %4 = alloca %"struct.open_spiel::twenty_forty_eight::Tile", align 4
  %5 = alloca ptr, align 8
  %6 = alloca i32, align 4
  %7 = alloca i32, align 4
  store ptr %0, ptr %5, align 8
  store i32 %1, ptr %6, align 4
  store i32 %2, ptr %7, align 4
  %8 = load ptr, ptr %5, align 8
  %9 = getelementptr inbounds nuw %"class.open_spiel::twenty_forty_eight::TwentyFortyEightState", ptr %8, i32 0, i32 3
  %10 = load i32, ptr %6, align 4
  %11 = mul nsw i32 %10, 4
  %12 = load i32, ptr %7, align 4
  %13 = add nsw i32 %11, %12
  %14 = sext i32 %13 to i64
  %15 = call noundef nonnull align 4 dereferenceable(5) ptr @_ZNKSt6vectorIN10open_spiel18twenty_forty_eight4TileESaIS2_EEixEm(ptr noundef nonnull align 8 dereferenceable(24) %9, i64 noundef %14) #3
  call void @llvm.memcpy.p0.p0.i64(ptr align 4 %4, ptr align 4 %15, i64 8, i1 false)
  %16 = load i64, ptr %4, align 4
  ret i64 %16
}

; Function Attrs: mustprogress uwtable
define noundef zeroext i1 @_ZNK10open_spiel18twenty_forty_eight21TwentyFortyEightState18TileMatchAvailableEii(ptr noundef nonnull align 8 dereferenceable(120) %0, i32 noundef %1, i32 noundef %2) #4 align 2 {
  %4 = alloca i1, align 1
  %5 = alloca ptr, align 8
  %6 = alloca i32, align 4
  %7 = alloca i32, align 4
  %8 = alloca i32, align 4
  %9 = alloca %"struct.open_spiel::twenty_forty_eight::Tile", align 4
  %10 = alloca ptr, align 8
  %11 = alloca ptr, align 8
  %12 = alloca ptr, align 8
  %13 = alloca i32, align 4
  %14 = alloca %"struct.open_spiel::twenty_forty_eight::Coordinate", align 4
  %15 = alloca i32, align 4
  store ptr %0, ptr %5, align 8
  store i32 %1, ptr %6, align 4
  store i32 %2, ptr %7, align 4
  %16 = load ptr, ptr %5, align 8
  %17 = load i32, ptr %6, align 4
  %18 = load i32, ptr %7, align 4
  %19 = call i64 @_ZNK10open_spiel18twenty_forty_eight21TwentyFortyEightState7BoardAtEii(ptr noundef nonnull align 8 dereferenceable(120) %16, i32 noundef %17, i32 noundef %18)
  %20 = trunc i64 %19 to i40
  store i40 %20, ptr %9, align 4
  %21 = getelementptr inbounds nuw %"struct.open_spiel::twenty_forty_eight::Tile", ptr %9, i32 0, i32 0
  %22 = load i32, ptr %21, align 4
  store i32 %22, ptr %8, align 4
  %23 = load i32, ptr %8, align 4
  %24 = icmp sgt i32 %23, 0
  br i1 %24, label %25, label %59

25:                                               ; preds = %3
  store ptr @_ZN10open_spiel18twenty_forty_eight12_GLOBAL__N_114kPlayerActionsE, ptr %10, align 8
  %26 = call noundef ptr @_ZNKSt5arrayIlLm4EE5beginEv(ptr noundef nonnull align 8 dereferenceable(32) @_ZN10open_spiel18twenty_forty_eight12_GLOBAL__N_114kPlayerActionsE) #3
  store ptr %26, ptr %11, align 8
  %27 = call noundef ptr @_ZNKSt5arrayIlLm4EE3endEv(ptr noundef nonnull align 8 dereferenceable(32) @_ZN10open_spiel18twenty_forty_eight12_GLOBAL__N_114kPlayerActionsE) #3
  store ptr %27, ptr %12, align 8
  br label %28

28:                                               ; preds = %55, %25
  %29 = load ptr, ptr %11, align 8
  %30 = load ptr, ptr %12, align 8
  %31 = icmp ne ptr %29, %30
  br i1 %31, label %32, label %58

32:                                               ; preds = %28
  %33 = load ptr, ptr %11, align 8
  %34 = load i64, ptr %33, align 8
  %35 = trunc i64 %34 to i32
  store i32 %35, ptr %13, align 4
  %36 = load i32, ptr %13, align 4
  %37 = call i64 @_ZN10open_spiel18twenty_forty_eight9GetVectorEi(i32 noundef %36)
  store i64 %37, ptr %14, align 4
  %38 = load i32, ptr %6, align 4
  %39 = getelementptr inbounds nuw %"struct.open_spiel::twenty_forty_eight::Coordinate", ptr %14, i32 0, i32 0
  %40 = load i32, ptr %39, align 4
  %41 = add nsw i32 %38, %40
  %42 = load i32, ptr %7, align 4
  %43 = getelementptr inbounds nuw %"struct.open_spiel::twenty_forty_eight::Coordinate", ptr %14, i32 0, i32 1
  %44 = load i32, ptr %43, align 4
  %45 = add nsw i32 %42, %44
  %46 = call noundef i32 @_ZNK10open_spiel18twenty_forty_eight21TwentyFortyEightState14GetCellContentEii(ptr noundef nonnull align 8 dereferenceable(120) %16, i32 noundef %41, i32 noundef %45)
  store i32 %46, ptr %15, align 4
  %47 = load i32, ptr %15, align 4
  %48 = icmp sgt i32 %47, 0
  br i1 %48, label %49, label %54

49:                                               ; preds = %32
  %50 = load i32, ptr %15, align 4
  %51 = load i32, ptr %8, align 4
  %52 = icmp eq i32 %50, %51
  br i1 %52, label %53, label %54

53:                                               ; preds = %49
  store i1 true, ptr %4, align 1
  br label %60

54:                                               ; preds = %49, %32
  br label %55

55:                                               ; preds = %54
  %56 = load ptr, ptr %11, align 8
  %57 = getelementptr inbounds i64, ptr %56, i32 1
  store ptr %57, ptr %11, align 8
  br label %28

58:                                               ; preds = %28
  br label %59

59:                                               ; preds = %58, %3
  store i1 false, ptr %4, align 1
  br label %60

60:                                               ; preds = %59, %53
  %61 = load i1, ptr %4, align 1
  ret i1 %61
}