; Function Attrs: mustprogress uwtable
define noundef zeroext i1 @_ZNK10open_spiel18twenty_forty_eight21TwentyFortyEightState18TileMatchAvailableEii(ptr noundef nonnull readonly align 8 captures(none) dereferenceable(120) %0, i32 noundef %1, i32 noundef %2) local_unnamed_addr #3 align 2 personality ptr @__gxx_personality_v0 {
  %4 = alloca %"class.std::__cxx11::basic_string", align 8
  %5 = alloca %"class.std::allocator", align 1
  %6 = getelementptr inbounds nuw i8, ptr %0, i64 80
  %7 = shl nsw i32 %1, 2
  %8 = add nsw i32 %7, %2
  %9 = sext i32 %8 to i64
  %10 = load ptr, ptr %6, align 8
  %11 = getelementptr inbounds %"struct.open_spiel::twenty_forty_eight::Tile", ptr %10, i64 %9
  %.sroa.0.0.copyload.i = load i64, ptr %11, align 4
  %.sroa.06.0.extract.trunc = trunc i64 %.sroa.0.0.copyload.i to i32
  %12 = icmp sgt i32 %.sroa.06.0.extract.trunc, 0
  br i1 %12, label %.preheader, label %.loopexit

.preheader:                                       ; preds = %3, %_ZNK10open_spiel18twenty_forty_eight21TwentyFortyEightState14GetCellContentEii.exit.thread
  %.016.idx20 = phi i64 [ %.016.add, %_ZNK10open_spiel18twenty_forty_eight21TwentyFortyEightState14GetCellContentEii.exit.thread ], [ 0, %3 ]
  %.016.ptr = getelementptr inbounds nuw i8, ptr @_ZN10open_spiel18twenty_forty_eight12_GLOBAL__N_114kPlayerActionsE, i64 %.016.idx20
  %13 = load i64, ptr %.016.ptr, align 8
  call void @llvm.lifetime.start.p0(i64 32, ptr nonnull %4)
  call void @llvm.lifetime.start.p0(i64 1, ptr nonnull %5)
  %14 = and i64 %13, 4294967292
  %15 = icmp eq i64 %14, 0
  br i1 %15, label %switch.lookup, label %16

16:                                               ; preds = %.preheader
  call void @_ZNSaIcEC1Ev(ptr noundef nonnull align 1 dereferenceable(1) %5) #28
  invoke void @_ZNSt7__cxx1112basic_stringIcSt11char_traitsIcESaIcEEC2IS3_EEPKcRKS3_(ptr noundef nonnull align 8 dereferenceable(32) %4, ptr noundef nonnull @.str.24, ptr noundef nonnull align 1 dereferenceable(1) %5)
          to label %17 unwind label %19

17:                                               ; preds = %16
  invoke void @_ZN10open_spiel15SpielFatalErrorERKNSt7__cxx1112basic_stringIcSt11char_traitsIcESaIcEEE(ptr noundef nonnull align 8 dereferenceable(32) %4) #27
          to label %18 unwind label %21

18:                                               ; preds = %17
  unreachable

19:                                               ; preds = %16
  %20 = landingpad { ptr, i32 }
          cleanup
  br label %23

21:                                               ; preds = %17
  %22 = landingpad { ptr, i32 }
          cleanup
  call void @_ZNSt7__cxx1112basic_stringIcSt11char_traitsIcESaIcEED1Ev(ptr noundef nonnull align 8 dereferenceable(32) %4) #28
  br label %23

23:                                               ; preds = %21, %19
  %.pn.i = phi { ptr, i32 } [ %22, %21 ], [ %20, %19 ]
  call void @_ZNSaIcED1Ev(ptr noundef nonnull align 1 dereferenceable(1) %5) #28
  resume { ptr, i32 } %.pn.i

switch.lookup:                                    ; preds = %.preheader
  %24 = and i64 %13, 3
  %switch.gep = getelementptr inbounds nuw [4 x i64], ptr @switch.table._ZNK10open_spiel18twenty_forty_eight21TwentyFortyEightState12LegalActionsEv, i64 0, i64 %24
  %switch.load = load i64, ptr %switch.gep, align 8
  call void @llvm.lifetime.end.p0(i64 32, ptr nonnull %4)
  call void @llvm.lifetime.end.p0(i64 1, ptr nonnull %5)
  %.sroa.0.0.extract.trunc = trunc i64 %switch.load to i32
  %.sroa.2.0.extract.shift = lshr i64 %switch.load, 32
  %.sroa.2.0.extract.trunc = trunc nuw i64 %.sroa.2.0.extract.shift to i32
  %25 = add nsw i32 %1, %.sroa.0.0.extract.trunc
  %26 = add nsw i32 %2, %.sroa.2.0.extract.trunc
  %or.cond.i.i = icmp ult i32 %25, 4
  %27 = icmp sgt i32 %26, -1
  %or.cond3.i.i = and i1 %or.cond.i.i, %27
  %28 = icmp samesign ult i32 %26, 4
  %spec.select.i.i = select i1 %or.cond3.i.i, i1 %28, i1 false
  br i1 %spec.select.i.i, label %_ZNK10open_spiel18twenty_forty_eight21TwentyFortyEightState14GetCellContentEii.exit, label %_ZNK10open_spiel18twenty_forty_eight21TwentyFortyEightState14GetCellContentEii.exit.thread

_ZNK10open_spiel18twenty_forty_eight21TwentyFortyEightState14GetCellContentEii.exit: ; preds = %switch.lookup
  %29 = shl nuw nsw i32 %25, 2
  %30 = or disjoint i32 %29, %26
  %31 = zext nneg i32 %30 to i64
  %32 = getelementptr inbounds nuw %"struct.open_spiel::twenty_forty_eight::Tile", ptr %10, i64 %31
  %.sroa.0.0.copyload.i.i = load i64, ptr %32, align 4
  %.sroa.0.0.extract.trunc.i = trunc i64 %.sroa.0.0.copyload.i.i to i32
  %33 = icmp eq i32 %.sroa.0.0.extract.trunc.i, %.sroa.06.0.extract.trunc
  br i1 %33, label %.loopexit, label %_ZNK10open_spiel18twenty_forty_eight21TwentyFortyEightState14GetCellContentEii.exit.thread

_ZNK10open_spiel18twenty_forty_eight21TwentyFortyEightState14GetCellContentEii.exit.thread: ; preds = %switch.lookup, %_ZNK10open_spiel18twenty_forty_eight21TwentyFortyEightState14GetCellContentEii.exit
  %.016.add = add nuw nsw i64 %.016.idx20, 8
  %.not = icmp eq i64 %.016.add, 32
  br i1 %.not, label %.loopexit, label %.preheader

.loopexit:                                        ; preds = %_ZNK10open_spiel18twenty_forty_eight21TwentyFortyEightState14GetCellContentEii.exit.thread, %_ZNK10open_spiel18twenty_forty_eight21TwentyFortyEightState14GetCellContentEii.exit, %3
  %.0 = phi i1 [ false, %3 ], [ false, %_ZNK10open_spiel18twenty_forty_eight21TwentyFortyEightState14GetCellContentEii.exit.thread ], [ true, %_ZNK10open_spiel18twenty_forty_eight21TwentyFortyEightState14GetCellContentEii.exit ]
  ret i1 %.0
}